target datalayout = "e-m:e-p270:32:32-p271:32:32-p272:64:64-i64:64-i128:128-f80:128-n8:16:32:64-S128"
target triple = "x86_64-pc-linux-gnu"

%struct._zend_executor_globals = type { %struct._zval_struct, %struct._zval_struct, [32 x ptr], ptr, ptr, %struct._zend_array, %struct._zend_array, ptr, i32, i8, %struct._zval_struct, i32, ptr, ptr, ptr, ptr, ptr, ptr, i64, ptr, ptr, i32, ptr, i32, i64, i32, i32, i32, i8, i8, %struct.zend_atomic_bool_s, %struct.zend_atomic_bool_s, ptr, i64, ptr, ptr, %struct._zend_array, %struct._zend_array, i32, i8, %struct._zval_struct, %struct._zval_struct, %struct._zend_stack, %struct._zend_stack, %struct._zend_stack, ptr, i32, i32, i64, ptr, ptr, ptr, %struct._zend_objects_store, %struct._zend_lazy_objects_store, ptr, ptr, ptr, [3 x %struct._zend_op], ptr, i8, i8, i64, i32, i32, ptr, [16 x %struct._HashTableIterator], ptr, %union._zend_function, %struct._zend_op, %struct._zend_array, i64, %struct.zend_get_gc_buffer, ptr, ptr, ptr, i64, i8, i32, ptr, ptr, i64, %struct._zend_call_stack, i64, i64, %struct._zend_strtod_state, [6 x ptr] }
%struct.zend_atomic_bool_s = type { i8 }
%struct._zval_struct = type { %union._zend_value, %union.anon, %union.anon.2 }
%union._zend_value = type { i64 }
%union.anon = type { i32 }
%union.anon.2 = type { i32 }
%struct._zend_stack = type { i32, i32, i32, ptr }
%struct._zend_objects_store = type { ptr, i32, i32, i32 }
%struct._zend_lazy_objects_store = type { %struct._zend_array }
%struct._HashTableIterator = type { ptr, i32, i32 }
%union._zend_function = type { %struct._zend_op_array }
%struct._zend_op_array = type { i8, [3 x i8], i32, ptr, ptr, ptr, i32, i32, ptr, ptr, ptr, ptr, i32, ptr, i32, i32, i32, ptr, ptr, ptr, ptr, ptr, i32, i32, ptr, ptr, ptr, i32, i32, i32, i32, ptr, ptr, [6 x ptr] }
%struct._zend_op = type { ptr, %union._znode_op, %union._znode_op, %union._znode_op, i32, i32, i8, i8, i8, i8 }
%union._znode_op = type { i32 }
%struct._zend_array = type { %struct._zend_refcounted_h, %union.anon.4, i32, %union.anon.6, i32, i32, i32, i32, i64, ptr }
%struct._zend_refcounted_h = type { i32, %union.anon.3 }
%union.anon.3 = type { i32 }
%union.anon.4 = type { i32 }
%union.anon.6 = type { ptr }
%struct.zend_get_gc_buffer = type { ptr, ptr, ptr }
%struct._zend_call_stack = type { ptr, i64 }
%struct._zend_strtod_state = type { [8 x ptr], ptr, ptr }
%struct._zend_fcall_info_cache = type { ptr, ptr, ptr, ptr, ptr }
%struct._zend_llist = type { ptr, ptr, i64, i64, ptr, i8, ptr }
%struct._zend_execute_data = type { ptr, ptr, ptr, ptr, %struct._zval_struct, ptr, ptr, ptr, ptr }
%struct._php_sqlite3_db_object = type { i8, i8, ptr, ptr, ptr, %struct._zend_fcall_info_cache, %struct._zend_llist, %struct._zend_object }
%struct._zend_object = type { %struct._zend_refcounted_h, i32, i32, ptr, ptr, ptr, [1 x %struct._zval_struct] }
%struct._zend_string = type { %struct._zend_refcounted_h, i64, i64, [1 x i8] }
%struct._php_sqlite3_stmt_object = type { ptr, ptr, i8, ptr, %struct._zend_object }
%struct.anon.0 = type { i8, i8, %union.anon.1 }
%union.anon.1 = type { i16 }
%struct._zend_refcounted = type { %struct._zend_refcounted_h }

@executor_globals = external global %struct._zend_executor_globals, align 8
@.str.7 = private unnamed_addr constant [2 x i8] c"S\00", align 1
@.str.8 = private unnamed_addr constant [75 x i8] c"The SQLite3 object has not been correctly initialised or is already closed\00", align 1
@php_sqlite3_stmt_entry = internal global ptr null, align 8
@.str.21 = private unnamed_addr constant [32 x i8] c"Unable to prepare statement: %s\00", align 1

; Function Attrs: alwaysinline nounwind uwtable
define internal i32 @zend_gc_addref(ptr noundef %0) #8 {
  %2 = alloca ptr, align 8
  store ptr %0, ptr %2, align 8, !tbaa !206
  br label %3

3:                                                ; preds = %1
  br label %4

4:                                                ; preds = %3
  %5 = load ptr, ptr %2, align 8, !tbaa !206
  %6 = getelementptr inbounds nuw %struct._zend_refcounted_h, ptr %5, i32 0, i32 0
  %7 = load i32, ptr %6, align 4, !tbaa !208
  %8 = add i32 %7, 1
  store i32 %8, ptr %6, align 4, !tbaa !208
  ret i32 %8
}

; Function Attrs: alwaysinline nounwind uwtable
define internal i32 @zval_addref_p(ptr noundef %0) #8 {
  %2 = alloca ptr, align 8
  store ptr %0, ptr %2, align 8, !tbaa !9
  %3 = load ptr, ptr %2, align 8, !tbaa !9
  %4 = getelementptr inbounds nuw %struct._zval_struct, ptr %3, i32 0, i32 1
  %5 = getelementptr inbounds nuw %struct.anon.0, ptr %4, i32 0, i32 1
  %6 = load i8, ptr %5, align 1, !tbaa !13
  %7 = zext i8 %6 to i32
  %8 = icmp ne i32 %7, 0
  call void @llvm.assume(i1 %8)
  %9 = load ptr, ptr %2, align 8, !tbaa !9
  %10 = getelementptr inbounds nuw %struct._zval_struct, ptr %9, i32 0, i32 0
  %11 = load ptr, ptr %10, align 8, !tbaa !13
  %12 = getelementptr inbounds nuw %struct._zend_refcounted, ptr %11, i32 0, i32 0
  %13 = call i32 @zend_gc_addref(ptr noundef %12)
  ret i32 %13
}

; Function Attrs: inlinehint nounwind uwtable
define internal ptr @php_sqlite3_stmt_from_obj(ptr noundef %0) #2 {
  %2 = alloca ptr, align 8
  store ptr %0, ptr %2, align 8, !tbaa !67
  %3 = load ptr, ptr %2, align 8, !tbaa !67
  %4 = getelementptr inbounds i8, ptr %3, i64 -32
  ret ptr %4
}

; Function Attrs: inlinehint nounwind uwtable
define internal ptr @php_sqlite3_db_from_obj(ptr noundef %0) #2 {
  %2 = alloca ptr, align 8
  store ptr %0, ptr %2, align 8, !tbaa !67
  %3 = load ptr, ptr %2, align 8, !tbaa !67
  %4 = getelementptr inbounds i8, ptr %3, i64 -128
  ret ptr %4
}

; Function Attrs: nounwind uwtable
define hidden void @zim_SQLite3_prepare(ptr noundef %0, ptr noundef %1) #0 {
  %3 = alloca ptr, align 8
  %4 = alloca ptr, align 8
  %5 = alloca ptr, align 8
  %6 = alloca ptr, align 8
  %7 = alloca ptr, align 8
  %8 = alloca ptr, align 8
  %9 = alloca i32, align 4
  %10 = alloca i32, align 4
  store ptr %0, ptr %3, align 8, !tbaa !4
  store ptr %1, ptr %4, align 8, !tbaa !9
  call void @llvm.lifetime.start.p0(i64 8, ptr %5) #15
  call void @llvm.lifetime.start.p0(i64 8, ptr %6) #15
  call void @llvm.lifetime.start.p0(i64 8, ptr %7) #15
  %11 = load ptr, ptr %3, align 8, !tbaa !4
  %12 = getelementptr inbounds nuw %struct._zend_execute_data, ptr %11, i32 0, i32 4
  store ptr %12, ptr %7, align 8, !tbaa !9
  call void @llvm.lifetime.start.p0(i64 8, ptr %8) #15
  call void @llvm.lifetime.start.p0(i64 4, ptr %9) #15
  %13 = load ptr, ptr %7, align 8, !tbaa !9
  %14 = getelementptr inbounds nuw %struct._zval_struct, ptr %13, i32 0, i32 0
  %15 = load ptr, ptr %14, align 8, !tbaa !13
  %16 = call ptr @php_sqlite3_db_from_obj(ptr noundef %15)
  store ptr %16, ptr %5, align 8, !tbaa !14
  %17 = load ptr, ptr %3, align 8, !tbaa !4
  %18 = getelementptr inbounds nuw %struct._zend_execute_data, ptr %17, i32 0, i32 4
  %19 = getelementptr inbounds nuw %struct._zval_struct, ptr %18, i32 0, i32 2
  %20 = load i32, ptr %19, align 4, !tbaa !13
  %21 = call i32 (i32, ptr, ...) @zend_parse_parameters(i32 noundef %20, ptr noundef @.str.7, ptr noundef %8)
  %22 = icmp eq i32 -1, %21
  br i1 %22, label %23, label %29

23:                                               ; preds = %2
  br label %24

24:                                               ; preds = %23
  %25 = load ptr, ptr getelementptr inbounds nuw (%struct._zend_executor_globals, ptr @executor_globals, i32 0, i32 54), align 8, !tbaa !16
  %26 = icmp ne ptr %25, null
  call void @llvm.assume(i1 %26)
  store i32 1, ptr %10, align 4
  br label %106

27:                                               ; No predecessors!
  br label %28

28:                                               ; preds = %27
  br label %29

29:                                               ; preds = %28, %2
  %30 = load ptr, ptr %5, align 8, !tbaa !14
  %31 = icmp ne ptr %30, null
  br i1 %31, label %32, label %37

32:                                               ; preds = %29
  %33 = load ptr, ptr %5, align 8, !tbaa !14
  %34 = getelementptr inbounds nuw %struct._php_sqlite3_db_object, ptr %33, i32 0, i32 0
  %35 = load i8, ptr %34, align 8, !tbaa !48, !range !59, !noundef !60
  %36 = trunc i8 %35 to i1
  br i1 %36, label %43, label %37

37:                                               ; preds = %32, %29
  call void (ptr, ptr, ...) @zend_throw_error(ptr noundef null, ptr noundef @.str.8)
  br label %38

38:                                               ; preds = %37
  %39 = load ptr, ptr getelementptr inbounds nuw (%struct._zend_executor_globals, ptr @executor_globals, i32 0, i32 54), align 8, !tbaa !16
  %40 = icmp ne ptr %39, null
  call void @llvm.assume(i1 %40)
  store i32 1, ptr %10, align 4
  br label %106

41:                                               ; No predecessors!
  br label %42

42:                                               ; preds = %41
  br label %43

43:                                               ; preds = %42, %32
  %44 = load ptr, ptr %8, align 8, !tbaa !76
  %45 = getelementptr inbounds nuw %struct._zend_string, ptr %44, i32 0, i32 2
  %46 = load i64, ptr %45, align 8, !tbaa !81
  %47 = icmp ne i64 %46, 0
  br i1 %47, label %57, label %48

48:                                               ; preds = %43
  br label %49

49:                                               ; preds = %48
  br label %50

50:                                               ; preds = %49
  %51 = load ptr, ptr %4, align 8, !tbaa !9
  %52 = getelementptr inbounds nuw %struct._zval_struct, ptr %51, i32 0, i32 1
  store i32 2, ptr %52, align 8, !tbaa !13
  br label %53

53:                                               ; preds = %50
  br label %54

54:                                               ; preds = %53
  store i32 1, ptr %10, align 4
  br label %106

55:                                               ; No predecessors!
  br label %56

56:                                               ; preds = %55
  br label %57

57:                                               ; preds = %56, %43
  %58 = load ptr, ptr %4, align 8, !tbaa !9
  %59 = load ptr, ptr @php_sqlite3_stmt_entry, align 8, !tbaa !61
  %60 = call i32 @object_init_ex(ptr noundef %58, ptr noundef %59)
  %61 = load ptr, ptr %4, align 8, !tbaa !9
  %62 = getelementptr inbounds nuw %struct._zval_struct, ptr %61, i32 0, i32 0
  %63 = load ptr, ptr %62, align 8, !tbaa !13
  %64 = call ptr @php_sqlite3_stmt_from_obj(ptr noundef %63)
  store ptr %64, ptr %6, align 8, !tbaa !83
  %65 = load ptr, ptr %5, align 8, !tbaa !14
  %66 = load ptr, ptr %6, align 8, !tbaa !83
  %67 = getelementptr inbounds nuw %struct._php_sqlite3_stmt_object, ptr %66, i32 0, i32 1
  store ptr %65, ptr %67, align 8, !tbaa !85
  %68 = load ptr, ptr %7, align 8, !tbaa !9
  %69 = call i32 @zval_addref_p(ptr noundef %68)
  %70 = load ptr, ptr %5, align 8, !tbaa !14
  %71 = getelementptr inbounds nuw %struct._php_sqlite3_db_object, ptr %70, i32 0, i32 2
  %72 = load ptr, ptr %71, align 8, !tbaa !64
  %73 = load ptr, ptr %8, align 8, !tbaa !76
  %74 = getelementptr inbounds nuw %struct._zend_string, ptr %73, i32 0, i32 3
  %75 = getelementptr inbounds [1 x i8], ptr %74, i64 0, i64 0
  %76 = load ptr, ptr %8, align 8, !tbaa !76
  %77 = getelementptr inbounds nuw %struct._zend_string, ptr %76, i32 0, i32 2
  %78 = load i64, ptr %77, align 8, !tbaa !81
  %79 = trunc i64 %78 to i32
  %80 = load ptr, ptr %6, align 8, !tbaa !83
  %81 = getelementptr inbounds nuw %struct._php_sqlite3_stmt_object, ptr %80, i32 0, i32 0
  %82 = call i32 @sqlite3_prepare_v2(ptr noundef %72, ptr noundef %75, i32 noundef %79, ptr noundef %81, ptr noundef null)
  store i32 %82, ptr %9, align 4, !tbaa !63
  %83 = load i32, ptr %9, align 4, !tbaa !63
  %84 = icmp ne i32 %83, 0
  br i1 %84, label %85, label %101

85:                                               ; preds = %57
  %86 = load ptr, ptr %5, align 8, !tbaa !14
  %87 = load i32, ptr %9, align 4, !tbaa !63
  %88 = load ptr, ptr %5, align 8, !tbaa !14
  %89 = getelementptr inbounds nuw %struct._php_sqlite3_db_object, ptr %88, i32 0, i32 2
  %90 = load ptr, ptr %89, align 8, !tbaa !64
  %91 = call ptr @sqlite3_errmsg(ptr noundef %90)
  call void (ptr, i32, ptr, ...) @php_sqlite3_error(ptr noundef %86, i32 noundef %87, ptr noundef @.str.21, ptr noundef %91)
  %92 = load ptr, ptr %4, align 8, !tbaa !9
  call void @zval_ptr_dtor(ptr noundef %92)
  br label %93

93:                                               ; preds = %85
  br label %94

94:                                               ; preds = %93
  %95 = load ptr, ptr %4, align 8, !tbaa !9
  %96 = getelementptr inbounds nuw %struct._zval_struct, ptr %95, i32 0, i32 1
  store i32 2, ptr %96, align 8, !tbaa !13
  br label %97

97:                                               ; preds = %94
  br label %98

98:                                               ; preds = %97
  store i32 1, ptr %10, align 4
  br label %106

99:                                               ; No predecessors!
  br label %100

100:                                              ; preds = %99
  br label %101

101:                                              ; preds = %100, %57
  %102 = load ptr, ptr %6, align 8, !tbaa !83
  %103 = getelementptr inbounds nuw %struct._php_sqlite3_stmt_object, ptr %102, i32 0, i32 2
  store i8 1, ptr %103, align 8, !tbaa !88
  %104 = load ptr, ptr %5, align 8, !tbaa !14
  %105 = getelementptr inbounds nuw %struct._php_sqlite3_db_object, ptr %104, i32 0, i32 6
  call void @zend_llist_add_element(ptr noundef %105, ptr noundef %6)
  store i32 0, ptr %10, align 4
  br label %106

106:                                              ; preds = %101, %98, %54, %38, %24
  call void @llvm.lifetime.end.p0(i64 4, ptr %9) #15
  call void @llvm.lifetime.end.p0(i64 8, ptr %8) #15
  call void @llvm.lifetime.end.p0(i64 8, ptr %7) #15
  call void @llvm.lifetime.end.p0(i64 8, ptr %6) #15
  call void @llvm.lifetime.end.p0(i64 8, ptr %5) #15
  %107 = load i32, ptr %10, align 4
  switch i32 %107, label %109 [
    i32 0, label %108
    i32 1, label %108
  ]

108:                                              ; preds = %106, %106
  ret void

109:                                              ; preds = %106
  unreachable
}