; Function Attrs: nounwind uwtable
define hidden void @zim_SQLite3_prepare(ptr noundef readonly captures(none) %0, ptr noundef %1) #0 {
  %3 = alloca ptr, align 8
  %4 = alloca ptr, align 8
  call void @llvm.lifetime.start.p0(i64 8, ptr nonnull %3) #17
  %5 = getelementptr inbounds nuw i8, ptr %0, i64 32
  call void @llvm.lifetime.start.p0(i64 8, ptr nonnull %4) #17
  %6 = load ptr, ptr %5, align 8, !tbaa !8
  %7 = getelementptr inbounds i8, ptr %6, i64 -128
  %8 = getelementptr inbounds nuw i8, ptr %0, i64 44
  %9 = load i32, ptr %8, align 4, !tbaa !8
  %10 = call i32 (i32, ptr, ...) @zend_parse_parameters(i32 noundef %9, ptr noundef nonnull @.str.7, ptr noundef nonnull %4) #17
  %11 = icmp eq i32 %10, -1
  br i1 %11, label %12, label %15

12:                                               ; preds = %2
  %13 = load ptr, ptr getelementptr inbounds nuw (i8, ptr @executor_globals, i64 960), align 8, !tbaa !9
  %14 = icmp ne ptr %13, null
  call void @llvm.assume(i1 %14)
  br label %54

15:                                               ; preds = %2
  %16 = load i8, ptr %7, align 8, !tbaa !44, !range !55, !noundef !56
  %17 = trunc nuw i8 %16 to i1
  br i1 %17, label %21, label %18

18:                                               ; preds = %15
  call void (ptr, ptr, ...) @zend_throw_error(ptr noundef null, ptr noundef nonnull @.str.8) #17
  %19 = load ptr, ptr getelementptr inbounds nuw (i8, ptr @executor_globals, i64 960), align 8, !tbaa !9
  %20 = icmp ne ptr %19, null
  call void @llvm.assume(i1 %20)
  br label %54

21:                                               ; preds = %15
  %22 = load ptr, ptr %4, align 8, !tbaa !79
  %23 = getelementptr inbounds nuw i8, ptr %22, i64 16
  %24 = load i64, ptr %23, align 8, !tbaa !73
  %.not18 = icmp eq i64 %24, 0
  br i1 %.not18, label %25, label %27

25:                                               ; preds = %21
  %26 = getelementptr inbounds nuw i8, ptr %1, i64 8
  store i32 2, ptr %26, align 8, !tbaa !8
  br label %54

27:                                               ; preds = %21
  %28 = load ptr, ptr @php_sqlite3_stmt_entry, align 8, !tbaa !57
  %29 = call i32 @object_init_ex(ptr noundef %1, ptr noundef %28) #17
  %30 = load ptr, ptr %1, align 8, !tbaa !8
  %31 = getelementptr inbounds i8, ptr %30, i64 -32
  store ptr %31, ptr %3, align 8, !tbaa !82
  %32 = getelementptr inbounds i8, ptr %30, i64 -24
  store ptr %7, ptr %32, align 8, !tbaa !84
  %33 = getelementptr inbounds nuw i8, ptr %0, i64 41
  %34 = load i8, ptr %33, align 1, !tbaa !8
  %35 = icmp ne i8 %34, 0
  call void @llvm.assume(i1 %35)
  %36 = load ptr, ptr %5, align 8, !tbaa !8
  %37 = load i32, ptr %36, align 4, !tbaa !70
  %38 = add i32 %37, 1
  store i32 %38, ptr %36, align 4, !tbaa !70
  %39 = getelementptr inbounds i8, ptr %6, i64 -120
  %40 = load ptr, ptr %39, align 8, !tbaa !59
  %41 = load ptr, ptr %4, align 8, !tbaa !79
  %42 = getelementptr inbounds nuw i8, ptr %41, i64 24
  %43 = getelementptr inbounds nuw i8, ptr %41, i64 16
  %44 = load i64, ptr %43, align 8, !tbaa !73
  %45 = trunc i64 %44 to i32
  %46 = call i32 @sqlite3_prepare_v2(ptr noundef %40, ptr noundef nonnull %42, i32 noundef %45, ptr noundef nonnull %31, ptr noundef null) #17
  %.not19 = icmp eq i32 %46, 0
  br i1 %.not19, label %51, label %47

47:                                               ; preds = %27
  %48 = load ptr, ptr %39, align 8, !tbaa !59
  %49 = call ptr @sqlite3_errmsg(ptr noundef %48) #17
  call void (ptr, i32, ptr, ...) @php_sqlite3_error(ptr noundef nonnull %7, i32 noundef %46, ptr noundef nonnull @.str.21, ptr noundef %49)
  call void @zval_ptr_dtor(ptr noundef nonnull %1) #17
  %50 = getelementptr inbounds nuw i8, ptr %1, i64 8
  store i32 2, ptr %50, align 8, !tbaa !8
  br label %54

51:                                               ; preds = %27
  %52 = getelementptr inbounds i8, ptr %30, i64 -16
  store i8 1, ptr %52, align 8, !tbaa !88
  %53 = getelementptr inbounds i8, ptr %6, i64 -56
  call void @zend_llist_add_element(ptr noundef nonnull %53, ptr noundef nonnull %3) #17
  br label %54

54:                                               ; preds = %51, %47, %25, %18, %12
  call void @llvm.lifetime.end.p0(i64 8, ptr nonnull %4) #17
  call void @llvm.lifetime.end.p0(i64 8, ptr nonnull %3) #17
  ret void
}